; Function Attrs: mustprogress nofree norecurse nosync nounwind memory(argmem: readwrite) uwtable
define internal fastcc void @_ZN11OpenImageIO6v3_1_0L11cmyk_to_rgbIhEEviPKT_mPS2_m(i32 noundef %0, ptr noundef nonnull readonly captures(none) %1, i64 noundef range(i64 0, 65536) %2, ptr noundef writeonly captures(none) %3, i64 noundef range(i64 -2147483648, 2147483648) %4) unnamed_addr #20 {
  %.not28 = icmp eq i32 %0, 0
  br i1 %.not28, label %._crit_edge, label %.lr.ph

.lr.ph:                                           ; preds = %5, %.lr.ph
  %.031 = phi i32 [ %48, %.lr.ph ], [ %0, %5 ]
  %.01830 = phi ptr [ %49, %.lr.ph ], [ %1, %5 ]
  %.01929 = phi ptr [ %50, %.lr.ph ], [ %3, %5 ]
  %6 = load i8, ptr %.01830, align 1, !tbaa !13
  %7 = uitofp i8 %6 to float
  %8 = fmul float %7, 0x3F70101020000000
  %9 = getelementptr inbounds nuw i8, ptr %.01830, i64 1
  %10 = load i8, ptr %9, align 1, !tbaa !13
  %11 = uitofp i8 %10 to float
  %12 = fmul float %11, 0x3F70101020000000
  %13 = getelementptr inbounds nuw i8, ptr %.01830, i64 2
  %14 = load i8, ptr %13, align 1, !tbaa !13
  %15 = uitofp i8 %14 to float
  %16 = fmul float %15, 0x3F70101020000000
  %17 = getelementptr inbounds nuw i8, ptr %.01830, i64 3
  %18 = load i8, ptr %17, align 1, !tbaa !13
  %19 = uitofp i8 %18 to float
  %20 = fmul float %19, 0x3F70101020000000
  %21 = fsub float 1.000000e+00, %8
  %22 = fsub float 1.000000e+00, %20
  %23 = fmul float %21, %22
  %24 = fsub float 1.000000e+00, %12
  %25 = fmul float %24, %22
  %26 = fsub float 1.000000e+00, %16
  %27 = fmul float %26, %22
  %28 = fmul float %23, 2.550000e+02
  %29 = fcmp olt float %28, 0.000000e+00
  %30 = select i1 %29, float -5.000000e-01, float 5.000000e-01
  %31 = fadd float %28, %30
  %.inv.i.i = fcmp oge float %31, 0.000000e+00
  %.0.i.i.i = select i1 %.inv.i.i, float %31, float 0.000000e+00
  %32 = fcmp ogt float %.0.i.i.i, 2.550000e+02
  %.1.i.i.i = select i1 %32, float 2.550000e+02, float %.0.i.i.i
  %33 = fptoui float %.1.i.i.i to i8
  store i8 %33, ptr %.01929, align 1, !tbaa !13
  %34 = fmul float %25, 2.550000e+02
  %35 = fcmp olt float %34, 0.000000e+00
  %36 = select i1 %35, float -5.000000e-01, float 5.000000e-01
  %37 = fadd float %34, %36
  %.inv.i.i20 = fcmp oge float %37, 0.000000e+00
  %.0.i.i.i21 = select i1 %.inv.i.i20, float %37, float 0.000000e+00
  %38 = fcmp ogt float %.0.i.i.i21, 2.550000e+02
  %.1.i.i.i22 = select i1 %38, float 2.550000e+02, float %.0.i.i.i21
  %39 = fptoui float %.1.i.i.i22 to i8
  %40 = getelementptr inbounds nuw i8, ptr %.01929, i64 1
  store i8 %39, ptr %40, align 1, !tbaa !13
  %41 = fmul float %27, 2.550000e+02
  %42 = fcmp olt float %41, 0.000000e+00
  %43 = select i1 %42, float -5.000000e-01, float 5.000000e-01
  %44 = fadd float %41, %43
  %.inv.i.i23 = fcmp oge float %44, 0.000000e+00
  %.0.i.i.i24 = select i1 %.inv.i.i23, float %44, float 0.000000e+00
  %45 = fcmp ogt float %.0.i.i.i24, 2.550000e+02
  %.1.i.i.i25 = select i1 %45, float 2.550000e+02, float %.0.i.i.i24
  %46 = fptoui float %.1.i.i.i25 to i8
  %47 = getelementptr inbounds nuw i8, ptr %.01929, i64 2
  store i8 %46, ptr %47, align 1, !tbaa !13
  %48 = add nsw i32 %.031, -1
  %49 = getelementptr inbounds nuw i8, ptr %.01830, i64 %2
  %50 = getelementptr inbounds nuw i8, ptr %.01929, i64 %4
  %.not = icmp eq i32 %48, 0
  br i1 %.not, label %._crit_edge, label %.lr.ph, !llvm.loop !239

._crit_edge:                                      ; preds = %.lr.ph, %5
  ret void
}